target datalayout = "e-m:e-p270:32:32-p271:32:32-p272:64:64-i64:64-i128:128-f80:128-n8:16:32:64-S128"
target triple = "x86_64-pc-linux-gnu"

@.str.16 = private unnamed_addr constant [2 x i8] c"i\00", align 1

; Function Attrs: nounwind uwtable
define internal ptr @test_pytime_fromseconds(ptr noundef %0, ptr noundef %1) #0 {
  %3 = alloca ptr, align 8
  %4 = alloca ptr, align 8
  %5 = alloca ptr, align 8
  %6 = alloca i32, align 4
  %7 = alloca i32, align 4
  %8 = alloca i64, align 8
  store ptr %0, ptr %4, align 8, !tbaa !3
  store ptr %1, ptr %5, align 8, !tbaa !3
  call void @llvm.lifetime.start.p0(i64 4, ptr %6) #3
  %9 = load ptr, ptr %5, align 8, !tbaa !3
  %10 = call i32 (ptr, ptr, ...) @PyArg_ParseTuple(ptr noundef %9, ptr noundef @.str.16, ptr noundef %6)
  %11 = icmp ne i32 %10, 0
  br i1 %11, label %13, label %12

12:                                               ; preds = %2
  store ptr null, ptr %3, align 8
  store i32 1, ptr %7, align 4
  br label %18

13:                                               ; preds = %2
  call void @llvm.lifetime.start.p0(i64 8, ptr %8) #3
  %14 = load i32, ptr %6, align 4, !tbaa !8
  %15 = call i64 @_PyTime_FromSeconds(i32 noundef %14)
  store i64 %15, ptr %8, align 8, !tbaa !10
  %16 = load i64, ptr %8, align 8, !tbaa !10
  %17 = call ptr @_PyTime_AsLong(i64 noundef %16)
  store ptr %17, ptr %3, align 8
  store i32 1, ptr %7, align 4
  call void @llvm.lifetime.end.p0(i64 8, ptr %8) #3
  br label %18

18:                                               ; preds = %13, %12
  call void @llvm.lifetime.end.p0(i64 4, ptr %6) #3
  %19 = load ptr, ptr %3, align 8
  ret ptr %19
}