; Function Attrs: nounwind uwtable
define internal ptr @test_pytime_fromseconds(ptr readnone captures(none) %0, ptr noundef %1) #0 {
  %3 = alloca i32, align 4
  call void @llvm.lifetime.start.p0(i64 4, ptr nonnull %3) #3
  %4 = call i32 (ptr, ptr, ...) @PyArg_ParseTuple(ptr noundef %1, ptr noundef nonnull @.str.16, ptr noundef nonnull %3) #3
  %.not = icmp eq i32 %4, 0
  br i1 %.not, label %9, label %5

5:                                                ; preds = %2
  %6 = load i32, ptr %3, align 4, !tbaa !8
  %7 = call i64 @_PyTime_FromSeconds(i32 noundef %6) #3
  %8 = call ptr @_PyTime_AsLong(i64 noundef %7) #3
  br label %9

9:                                                ; preds = %2, %5
  %.0 = phi ptr [ %8, %5 ], [ null, %2 ]
  call void @llvm.lifetime.end.p0(i64 4, ptr nonnull %3) #3
  ret ptr %.0
}